target datalayout = "e-m:e-p270:32:32-p271:32:32-p272:64:64-i64:64-i128:128-f80:128-n8:16:32:64-S128"
target triple = "x86_64-pc-linux-gnu"

%"struct.std::once_flag" = type { i32 }
%"class.duckdb_re2::RE2::Options" = type <{ i64, i32, i8, i8, i8, i8, i8, i8, i8, i8, i8, i8, i8, i8 }>
%"class.duckdb_re2::RE2" = type <{ ptr, %"class.duckdb_re2::RE2::Options", ptr, ptr, ptr, ptr, i32, i32, %"class.std::__cxx11::basic_string", ptr, ptr, ptr, ptr, %"struct.std::once_flag", %"struct.std::once_flag", %"struct.std::once_flag", [4 x i8] }>
%"class.std::__cxx11::basic_string" = type { %"struct.std::__cxx11::basic_string<char>::_Alloc_hider", i64, %union.anon }
%"struct.std::__cxx11::basic_string<char>::_Alloc_hider" = type { ptr }
%union.anon = type { i64, [8 x i8] }
%"struct.std::once_flag::_Prepare_execution" = type { i8 }
%class.anon.27 = type { i8 }
%class.anon.78 = type { ptr, ptr }
%"class.duckdb_re2::Prog" = type { i8, i8, i8, i8, i8, i32, i32, i32, i32, i8, i64, %union.anon.5, i32, [8 x i32], %"class.duckdb_re2::PODArray", i64, %"class.duckdb_re2::PODArray.9", %"class.duckdb_re2::PODArray.18", i64, ptr, ptr, [256 x i8], %"struct.std::once_flag", %"struct.std::once_flag" }
%union.anon.5 = type { ptr }
%"class.duckdb_re2::PODArray" = type { %"class.std::unique_ptr" }
%"class.std::unique_ptr" = type { %"struct.std::__uniq_ptr_data" }
%"struct.std::__uniq_ptr_data" = type { %"class.std::__uniq_ptr_impl" }
%"class.std::__uniq_ptr_impl" = type { %"class.std::tuple" }
%"class.std::tuple" = type { %"struct.std::_Tuple_impl" }
%"struct.std::_Tuple_impl" = type { %"struct.std::_Tuple_impl.7", %"struct.std::_Head_base.8" }
%"struct.std::_Tuple_impl.7" = type { %"struct.std::_Head_base" }
%"struct.std::_Head_base" = type { %"struct.duckdb_re2::PODArray<unsigned short>::Deleter" }
%"struct.duckdb_re2::PODArray<unsigned short>::Deleter" = type { i32 }
%"struct.std::_Head_base.8" = type { ptr }
%"class.duckdb_re2::PODArray.9" = type { %"class.std::unique_ptr.10" }
%"class.std::unique_ptr.10" = type { %"struct.std::__uniq_ptr_data.11" }
%"struct.std::__uniq_ptr_data.11" = type { %"class.std::__uniq_ptr_impl.12" }
%"class.std::__uniq_ptr_impl.12" = type { %"class.std::tuple.13" }
%"class.std::tuple.13" = type { %"struct.std::_Tuple_impl.14" }
%"struct.std::_Tuple_impl.14" = type { %"struct.std::_Tuple_impl.15", %"struct.std::_Head_base.17" }
%"struct.std::_Tuple_impl.15" = type { %"struct.std::_Head_base.16" }
%"struct.std::_Head_base.16" = type { %"struct.duckdb_re2::PODArray<duckdb_re2::Prog::Inst>::Deleter" }
%"struct.duckdb_re2::PODArray<duckdb_re2::Prog::Inst>::Deleter" = type { i32 }
%"struct.std::_Head_base.17" = type { ptr }
%"class.duckdb_re2::PODArray.18" = type { %"class.std::unique_ptr.19" }
%"class.std::unique_ptr.19" = type { %"struct.std::__uniq_ptr_data.20" }
%"struct.std::__uniq_ptr_data.20" = type { %"class.std::__uniq_ptr_impl.21" }
%"class.std::__uniq_ptr_impl.21" = type { %"class.std::tuple.22" }
%"class.std::tuple.22" = type { %"struct.std::_Tuple_impl.23" }
%"struct.std::_Tuple_impl.23" = type { %"struct.std::_Tuple_impl.24", %"struct.std::_Head_base.26" }
%"struct.std::_Tuple_impl.24" = type { %"struct.std::_Head_base.25" }
%"struct.std::_Head_base.25" = type { %"struct.duckdb_re2::PODArray<unsigned char>::Deleter" }
%"struct.duckdb_re2::PODArray<unsigned char>::Deleter" = type { i32 }
%"struct.std::_Head_base.26" = type { ptr }
%class.anon.79 = type { i8 }

@_ZSt15__once_callable = external thread_local global ptr, align 8
@_ZSt11__once_call = external thread_local global ptr, align 8

; Function Attrs: inlinehint mustprogress nounwind uwtable
define internal noundef i32 @_ZL18__gthread_active_pv() #7 {
  ret i32 1
}

; Function Attrs: inlinehint mustprogress nounwind uwtable
define internal noundef ptr @"_ZZNSt9once_flag18_Prepare_executionC1IZSt9call_onceIZNK10duckdb_re23RE211ReverseProgEvE3$_0JPKS4_EEvRS_OT_DpOT0_EUlvE_EERS9_ENKUlvE_cvPFvvEEv"(ptr noundef nonnull align 1 dereferenceable(1) %0) #7 align 2 {
  %2 = alloca ptr, align 8
  store ptr %0, ptr %2, align 8, !tbaa !81
  ret ptr @"_ZZNSt9once_flag18_Prepare_executionC1IZSt9call_onceIZNK10duckdb_re23RE211ReverseProgEvE3$_0JPKS4_EEvRS_OT_DpOT0_EUlvE_EERS9_ENUlvE_8__invokeEv"
}

; Function Attrs: mustprogress nounwind uwtable
define linkonce_odr void @_ZNSt9once_flag18_Prepare_executionD2Ev(ptr noundef nonnull align 1 dereferenceable(1) %0) unnamed_addr #0 comdat align 2 {
  %2 = alloca ptr, align 8
  store ptr %0, ptr %2, align 8, !tbaa !380
  %3 = call align 8 ptr @llvm.threadlocal.address.p0(ptr align 8 @_ZSt15__once_callable)
  store ptr null, ptr %3, align 8, !tbaa !81
  %4 = call align 8 ptr @llvm.threadlocal.address.p0(ptr align 8 @_ZSt11__once_call)
  store ptr null, ptr %4, align 8, !tbaa !81
  ret void
}

; Function Attrs: inlinehint mustprogress uwtable
define internal noundef i32 @_ZL14__gthread_oncePiPFvvE(ptr noundef %0, ptr noundef %1) #3 {
  %3 = alloca i32, align 4
  %4 = alloca ptr, align 8
  %5 = alloca ptr, align 8
  store ptr %0, ptr %4, align 8, !tbaa !185
  store ptr %1, ptr %5, align 8, !tbaa !81
  %6 = call noundef i32 @_ZL18__gthread_active_pv()
  %7 = icmp ne i32 %6, 0
  br i1 %7, label %8, label %12

8:                                                ; preds = %2
  %9 = load ptr, ptr %4, align 8, !tbaa !185
  %10 = load ptr, ptr %5, align 8, !tbaa !81
  %11 = call i32 @pthread_once(ptr noundef %9, ptr noundef %10)
  store i32 %11, ptr %3, align 4
  br label %13

12:                                               ; preds = %2
  store i32 -1, ptr %3, align 4
  br label %13

13:                                               ; preds = %12, %8
  %14 = load i32, ptr %3, align 4
  ret i32 %14
}

; Function Attrs: mustprogress nounwind uwtable
define internal void @"_ZNSt9once_flag18_Prepare_executionC2IZSt9call_onceIZNK10duckdb_re23RE211ReverseProgEvE3$_0JPKS4_EEvRS_OT_DpOT0_EUlvE_EERS9_"(ptr noundef nonnull align 1 dereferenceable(1) %0, ptr noundef nonnull align 8 dereferenceable(16) %1) unnamed_addr #0 align 2 {
  %3 = alloca ptr, align 8
  %4 = alloca ptr, align 8
  %5 = alloca %class.anon.79, align 1
  store ptr %0, ptr %3, align 8, !tbaa !380
  store ptr %1, ptr %4, align 8, !tbaa !81
  %6 = load ptr, ptr %4, align 8, !tbaa !81
  %7 = call align 8 ptr @llvm.threadlocal.address.p0(ptr align 8 @_ZSt15__once_callable)
  store ptr %6, ptr %7, align 8, !tbaa !81
  call void @llvm.lifetime.start.p0(i64 1, ptr %5) #20
  %8 = call noundef ptr @"_ZZNSt9once_flag18_Prepare_executionC1IZSt9call_onceIZNK10duckdb_re23RE211ReverseProgEvE3$_0JPKS4_EEvRS_OT_DpOT0_EUlvE_EERS9_ENKUlvE_cvPFvvEEv"(ptr noundef nonnull align 1 dereferenceable(1) %5) #20
  %9 = call align 8 ptr @llvm.threadlocal.address.p0(ptr align 8 @_ZSt11__once_call)
  store ptr %8, ptr %9, align 8, !tbaa !81
  call void @llvm.lifetime.end.p0(i64 1, ptr %5) #20
  ret void
}

; Function Attrs: mustprogress uwtable
define internal void @"_ZSt9call_onceIZNK10duckdb_re23RE211ReverseProgEvE3$_0JPKS1_EEvRSt9once_flagOT_DpOT0_"(ptr noundef nonnull align 4 dereferenceable(4) %0, ptr noundef nonnull align 1 dereferenceable(1) %1, ptr noundef nonnull align 8 dereferenceable(8) %2) #1 personality ptr @__gxx_personality_v0 {
  %4 = alloca ptr, align 8
  %5 = alloca ptr, align 8
  %6 = alloca ptr, align 8
  %7 = alloca %class.anon.78, align 8
  %8 = alloca %"struct.std::once_flag::_Prepare_execution", align 1
  %9 = alloca i32, align 4
  %10 = alloca ptr, align 8
  %11 = alloca i32, align 4
  store ptr %0, ptr %4, align 8, !tbaa !35
  store ptr %1, ptr %5, align 8, !tbaa !81
  store ptr %2, ptr %6, align 8, !tbaa !94
  call void @llvm.lifetime.start.p0(i64 16, ptr %7) #20
  %12 = getelementptr inbounds nuw %class.anon.78, ptr %7, i32 0, i32 0
  %13 = load ptr, ptr %5, align 8, !tbaa !81
  store ptr %13, ptr %12, align 8, !tbaa !81
  %14 = getelementptr inbounds nuw %class.anon.78, ptr %7, i32 0, i32 1
  %15 = load ptr, ptr %6, align 8, !tbaa !94
  store ptr %15, ptr %14, align 8, !tbaa !94
  call void @llvm.lifetime.start.p0(i64 1, ptr %8) #20
  call void @"_ZNSt9once_flag18_Prepare_executionC2IZSt9call_onceIZNK10duckdb_re23RE211ReverseProgEvE3$_0JPKS4_EEvRS_OT_DpOT0_EUlvE_EERS9_"(ptr noundef nonnull align 1 dereferenceable(1) %8, ptr noundef nonnull align 8 dereferenceable(16) %7)
  call void @llvm.lifetime.start.p0(i64 4, ptr %9) #20
  %16 = load ptr, ptr %4, align 8, !tbaa !35
  %17 = getelementptr inbounds nuw %"struct.std::once_flag", ptr %16, i32 0, i32 0
  %18 = invoke noundef i32 @_ZL14__gthread_oncePiPFvvE(ptr noundef %17, ptr noundef @__once_proxy)
          to label %19 unwind label %25

19:                                               ; preds = %3
  store i32 %18, ptr %9, align 4, !tbaa !3
  %20 = load i32, ptr %9, align 4, !tbaa !3
  %21 = icmp ne i32 %20, 0
  br i1 %21, label %22, label %29

22:                                               ; preds = %19
  %23 = load i32, ptr %9, align 4, !tbaa !3
  invoke void @_ZSt20__throw_system_errori(i32 noundef %23) #25
          to label %24 unwind label %25

24:                                               ; preds = %22
  unreachable

25:                                               ; preds = %22, %3
  %26 = landingpad { ptr, i32 }
          cleanup
  %27 = extractvalue { ptr, i32 } %26, 0
  store ptr %27, ptr %10, align 8
  %28 = extractvalue { ptr, i32 } %26, 1
  store i32 %28, ptr %11, align 4
  call void @llvm.lifetime.end.p0(i64 4, ptr %9) #20
  call void @_ZNSt9once_flag18_Prepare_executionD2Ev(ptr noundef nonnull align 1 dereferenceable(1) %8) #20
  call void @llvm.lifetime.end.p0(i64 1, ptr %8) #20
  call void @llvm.lifetime.end.p0(i64 16, ptr %7) #20
  br label %30

29:                                               ; preds = %19
  call void @llvm.lifetime.end.p0(i64 4, ptr %9) #20
  call void @_ZNSt9once_flag18_Prepare_executionD2Ev(ptr noundef nonnull align 1 dereferenceable(1) %8) #20
  call void @llvm.lifetime.end.p0(i64 1, ptr %8) #20
  call void @llvm.lifetime.end.p0(i64 16, ptr %7) #20
  ret void

30:                                               ; preds = %25
  %31 = load ptr, ptr %10, align 8
  %32 = load i32, ptr %11, align 4
  %33 = insertvalue { ptr, i32 } poison, ptr %31, 0
  %34 = insertvalue { ptr, i32 } %33, i32 %32, 1
  resume { ptr, i32 } %34
}

; Function Attrs: mustprogress nounwind uwtable
define linkonce_odr hidden noundef i32 @_ZN10duckdb_re24Prog4sizeEv(ptr noundef nonnull align 8 dereferenceable(432) %0) #0 comdat align 2 {
  %2 = alloca ptr, align 8
  store ptr %0, ptr %2, align 8, !tbaa !98
  %3 = load ptr, ptr %2, align 8
  %4 = getelementptr inbounds nuw %"class.duckdb_re2::Prog", ptr %3, i32 0, i32 7
  %5 = load i32, ptr %4, align 8, !tbaa !99
  ret i32 %5
}

; Function Attrs: mustprogress uwtable
define hidden noundef ptr @_ZNK10duckdb_re23RE211ReverseProgEv(ptr noundef nonnull align 8 dereferenceable(148) %0) #1 align 2 {
  %2 = alloca ptr, align 8
  %3 = alloca %class.anon.27, align 1
  %4 = alloca ptr, align 8
  store ptr %0, ptr %2, align 8, !tbaa !29
  %5 = load ptr, ptr %2, align 8
  %6 = getelementptr inbounds nuw %"class.duckdb_re2::RE2", ptr %5, i32 0, i32 13
  call void @llvm.lifetime.start.p0(i64 1, ptr %3) #20
  call void @llvm.lifetime.start.p0(i64 8, ptr %4) #20
  store ptr %5, ptr %4, align 8, !tbaa !29
  call void @"_ZSt9call_onceIZNK10duckdb_re23RE211ReverseProgEvE3$_0JPKS1_EEvRSt9once_flagOT_DpOT0_"(ptr noundef nonnull align 4 dereferenceable(4) %6, ptr noundef nonnull align 1 dereferenceable(1) %3, ptr noundef nonnull align 8 dereferenceable(8) %4)
  call void @llvm.lifetime.end.p0(i64 8, ptr %4) #20
  call void @llvm.lifetime.end.p0(i64 1, ptr %3) #20
  %7 = getelementptr inbounds nuw %"class.duckdb_re2::RE2", ptr %5, i32 0, i32 10
  %8 = load ptr, ptr %7, align 8, !tbaa !56
  ret ptr %8
}

; Function Attrs: mustprogress uwtable
define hidden noundef i32 @_ZNK10duckdb_re23RE218ReverseProgramSizeEv(ptr noundef nonnull align 8 dereferenceable(148) %0) #1 align 2 {
  %2 = alloca i32, align 4
  %3 = alloca ptr, align 8
  %4 = alloca ptr, align 8
  %5 = alloca i32, align 4
  store ptr %0, ptr %3, align 8, !tbaa !29
  %6 = load ptr, ptr %3, align 8
  %7 = getelementptr inbounds nuw %"class.duckdb_re2::RE2", ptr %6, i32 0, i32 9
  %8 = load ptr, ptr %7, align 8, !tbaa !55
  %9 = icmp eq ptr %8, null
  br i1 %9, label %10, label %11

10:                                               ; preds = %1
  store i32 -1, ptr %2, align 4
  br label %20

11:                                               ; preds = %1
  call void @llvm.lifetime.start.p0(i64 8, ptr %4) #20
  %12 = call noundef ptr @_ZNK10duckdb_re23RE211ReverseProgEv(ptr noundef nonnull align 8 dereferenceable(148) %6)
  store ptr %12, ptr %4, align 8, !tbaa !98
  %13 = load ptr, ptr %4, align 8, !tbaa !98
  %14 = icmp eq ptr %13, null
  br i1 %14, label %15, label %16

15:                                               ; preds = %11
  store i32 -1, ptr %2, align 4
  store i32 1, ptr %5, align 4
  br label %19

16:                                               ; preds = %11
  %17 = load ptr, ptr %4, align 8, !tbaa !98
  %18 = call noundef i32 @_ZN10duckdb_re24Prog4sizeEv(ptr noundef nonnull align 8 dereferenceable(432) %17)
  store i32 %18, ptr %2, align 4
  store i32 1, ptr %5, align 4
  br label %19

19:                                               ; preds = %16, %15
  call void @llvm.lifetime.end.p0(i64 8, ptr %4) #20
  br label %20

20:                                               ; preds = %19, %10
  %21 = load i32, ptr %2, align 4
  ret i32 %21
}