; Function Attrs: mustprogress uwtable
define hidden noundef i32 @_ZNK10duckdb_re23RE218ReverseProgramSizeEv(ptr noundef nonnull align 8 dereferenceable(148) %0) local_unnamed_addr #2 align 2 personality ptr @__gxx_personality_v0 {
  %2 = alloca %class.anon.78, align 8
  %3 = alloca %class.anon.27, align 1
  %4 = alloca ptr, align 8
  %5 = getelementptr inbounds nuw i8, ptr %0, i64 104
  %6 = load ptr, ptr %5, align 8, !tbaa !74
  %7 = icmp eq ptr %6, null
  br i1 %7, label %24, label %8

8:                                                ; preds = %1
  %9 = getelementptr inbounds nuw i8, ptr %0, i64 136
  call void @llvm.lifetime.start.p0(i64 1, ptr nonnull %3) #31
  call void @llvm.lifetime.start.p0(i64 8, ptr nonnull %4) #31
  store ptr %0, ptr %4, align 8, !tbaa !89
  call void @llvm.lifetime.start.p0(i64 16, ptr nonnull %2) #31
  store ptr %3, ptr %2, align 8, !tbaa !33
  %10 = getelementptr inbounds nuw i8, ptr %2, i64 8
  store ptr %4, ptr %10, align 8, !tbaa !91
  %11 = call align 8 ptr @llvm.threadlocal.address.p0(ptr align 8 @_ZSt15__once_callable)
  store ptr %2, ptr %11, align 8, !tbaa !33
  %12 = call align 8 ptr @llvm.threadlocal.address.p0(ptr align 8 @_ZSt11__once_call)
  store ptr @"_ZZNSt9once_flag18_Prepare_executionC1IZSt9call_onceIZNK10duckdb_re23RE211ReverseProgEvE3$_0JPKS4_EEvRS_OT_DpOT0_EUlvE_EERS9_ENUlvE_8__invokeEv", ptr %12, align 8, !tbaa !33
  %13 = invoke noundef i32 @pthread_once(ptr noundef nonnull align 4 dereferenceable(4) %9, ptr noundef nonnull @__once_proxy)
          to label %_ZL14__gthread_oncePiPFvvE.exit.i.i unwind label %16

_ZL14__gthread_oncePiPFvvE.exit.i.i:              ; preds = %8
  %.not.i.i = icmp eq i32 %13, 0
  br i1 %.not.i.i, label %_ZNK10duckdb_re23RE211ReverseProgEv.exit, label %14

14:                                               ; preds = %_ZL14__gthread_oncePiPFvvE.exit.i.i
  invoke void @_ZSt20__throw_system_errori(i32 noundef %13) #34
          to label %15 unwind label %16

15:                                               ; preds = %14
  unreachable

16:                                               ; preds = %14, %8
  %17 = landingpad { ptr, i32 }
          cleanup
  store ptr null, ptr %11, align 8, !tbaa !33
  store ptr null, ptr %12, align 8, !tbaa !33
  call void @llvm.lifetime.end.p0(i64 16, ptr nonnull %2) #31
  resume { ptr, i32 } %17

_ZNK10duckdb_re23RE211ReverseProgEv.exit:         ; preds = %_ZL14__gthread_oncePiPFvvE.exit.i.i
  store ptr null, ptr %11, align 8, !tbaa !33
  store ptr null, ptr %12, align 8, !tbaa !33
  call void @llvm.lifetime.end.p0(i64 16, ptr nonnull %2) #31
  call void @llvm.lifetime.end.p0(i64 8, ptr nonnull %4) #31
  call void @llvm.lifetime.end.p0(i64 1, ptr nonnull %3) #31
  %18 = getelementptr inbounds nuw i8, ptr %0, i64 112
  %19 = load ptr, ptr %18, align 8, !tbaa !93
  %20 = icmp eq ptr %19, null
  br i1 %20, label %24, label %21

21:                                               ; preds = %_ZNK10duckdb_re23RE211ReverseProgEv.exit
  %22 = getelementptr inbounds nuw i8, ptr %19, i64 16
  %23 = load i32, ptr %22, align 8, !tbaa !101
  br label %24

24:                                               ; preds = %21, %_ZNK10duckdb_re23RE211ReverseProgEv.exit, %1
  %.0 = phi i32 [ -1, %1 ], [ %23, %21 ], [ -1, %_ZNK10duckdb_re23RE211ReverseProgEv.exit ]
  ret i32 %.0
}